target datalayout = "e-m:e-p270:32:32-p271:32:32-p272:64:64-i64:64-i128:128-f80:128-n8:16:32:64-S128"
target triple = "x86_64-unknown-linux-gnu"

%"class.sat::prob" = type { %"class.sat::i_local_search", %"struct.sat::prob::config", %class.reslimit, %"class.sat::clause_allocator", %class.ptr_vector.7, %class.svector.9, %class.svector.11, %class.svector.11, i32, %class.vector.13, %class.svector.5, %class.svector.5, %class.svector.14, %class.svector.14, %class.indexed_uint_set, %class.random_gen, %class.svector.5, i64, i64, i32, [4 x i8], %class.stopwatch, %class.svector.16 }
%"class.sat::i_local_search" = type { ptr }
%"struct.sat::prob::config" = type { i32, i32, double, double }
%class.reslimit = type { %"struct.std::atomic", i8, i64, i64, %class.svector, %class.ptr_vector }
%"struct.std::atomic" = type { %"struct.std::__atomic_base" }
%"struct.std::__atomic_base" = type { i32 }
%class.svector = type { %class.vector }
%class.vector = type { ptr }
%class.ptr_vector = type { %class.vector.0 }
%class.vector.0 = type { ptr }
%"class.sat::clause_allocator" = type { %class.sat_allocator, %class.id_gen }
%class.sat_allocator = type { ptr, i64, %class.ptr_vector.1, ptr, [65 x %class.ptr_vector.3] }
%class.ptr_vector.1 = type { %class.vector.2 }
%class.vector.2 = type { ptr }
%class.ptr_vector.3 = type { %class.vector.4 }
%class.vector.4 = type { ptr }
%class.id_gen = type { i32, %class.svector.5 }
%class.ptr_vector.7 = type { %class.vector.8 }
%class.vector.8 = type { ptr }
%class.svector.9 = type { %class.vector.10 }
%class.vector.10 = type { ptr }
%class.svector.11 = type { %class.vector.12 }
%class.vector.12 = type { ptr }
%class.vector.13 = type { ptr }
%class.svector.14 = type { %class.vector.15 }
%class.vector.15 = type { ptr }
%class.indexed_uint_set = type { i32, %class.svector.5, %class.svector.5 }
%class.random_gen = type { i32 }
%class.svector.5 = type { %class.vector.6 }
%class.vector.6 = type { ptr }
%class.stopwatch = type <{ %"class.std::chrono::time_point", %"class.std::chrono::duration", i8, [7 x i8] }>
%"class.std::chrono::time_point" = type { %"class.std::chrono::duration" }
%"class.std::chrono::duration" = type { i64 }
%class.svector.16 = type { %class.vector.17 }
%class.vector.17 = type { ptr }

@.str = private unnamed_addr constant [104 x i8] c"generated/home/dtcxzyw/WorkSpace/Projects/compilers/llvm-opt-benchmark/bench/z3/z3/src/sat/sat_prob.cpp\00", align 1
@.str.2 = private unnamed_addr constant [26 x i8] c"Failed to verify: n == 0\0A\00", align 1

; Function Attrs: mustprogress nounwind uwtable
define linkonce_odr hidden noundef i32 @_ZN10random_genclEv(ptr noundef nonnull align 4 dereferenceable(4) %this) #4 comdat align 2 {
entry:
  %this.addr = alloca ptr, align 8
  store ptr %this, ptr %this.addr, align 8
  %this1 = load ptr, ptr %this.addr, align 8
  %m_data = getelementptr inbounds %class.random_gen, ptr %this1, i32 0, i32 0
  %0 = load i32, ptr %m_data, align 4
  %conv = zext i32 %0 to i64
  %mul = mul nsw i64 %conv, 214013
  %add = add nsw i64 %mul, 2531011
  %conv2 = trunc i64 %add to i32
  %m_data3 = getelementptr inbounds %class.random_gen, ptr %this1, i32 0, i32 0
  store i32 %conv2, ptr %m_data3, align 4
  %shr = lshr i32 %conv2, 16
  %and = and i32 %shr, 32767
  ret i32 %and
}

; Function Attrs: mustprogress nounwind uwtable
define linkonce_odr hidden noundef nonnull align 1 dereferenceable(1) ptr @_ZN6vectorIbLb0EjEixEj(ptr noundef nonnull align 8 dereferenceable(8) %this, i32 noundef %idx) #4 comdat align 2 {
entry:
  %this.addr = alloca ptr, align 8
  %idx.addr = alloca i32, align 4
  store ptr %this, ptr %this.addr, align 8
  store i32 %idx, ptr %idx.addr, align 4
  %this1 = load ptr, ptr %this.addr, align 8
  %m_data = getelementptr inbounds %class.vector.12, ptr %this1, i32 0, i32 0
  %0 = load ptr, ptr %m_data, align 8
  %1 = load i32, ptr %idx.addr, align 4
  %idxprom = zext i32 %1 to i64
  %arrayidx = getelementptr inbounds i8, ptr %0, i64 %idxprom
  ret ptr %arrayidx
}

; Function Attrs: mustprogress nounwind uwtable
define linkonce_odr hidden noundef i32 @_ZN10random_genclEj(ptr noundef nonnull align 4 dereferenceable(4) %this, i32 noundef %u) #4 comdat align 2 {
entry:
  %this.addr = alloca ptr, align 8
  %u.addr = alloca i32, align 4
  %r = alloca i32, align 4
  store ptr %this, ptr %this.addr, align 8
  store i32 %u, ptr %u.addr, align 4
  %this1 = load ptr, ptr %this.addr, align 8
  %call = call noundef i32 @_ZN10random_genclEv(ptr noundef nonnull align 4 dereferenceable(4) %this1)
  store i32 %call, ptr %r, align 4
  %0 = load i32, ptr %r, align 4
  %1 = load i32, ptr %u.addr, align 4
  %rem = urem i32 %0, %1
  ret i32 %rem
}

; Function Attrs: mustprogress nounwind uwtable
define linkonce_odr hidden noundef i32 @_ZNK6vectorIbLb0EjE4sizeEv(ptr noundef nonnull align 8 dereferenceable(8) %this) #4 comdat align 2 {
entry:
  %retval = alloca i32, align 4
  %this.addr = alloca ptr, align 8
  store ptr %this, ptr %this.addr, align 8
  %this1 = load ptr, ptr %this.addr, align 8
  %m_data = getelementptr inbounds %class.vector.12, ptr %this1, i32 0, i32 0
  %0 = load ptr, ptr %m_data, align 8
  %cmp = icmp eq ptr %0, null
  br i1 %cmp, label %if.then, label %if.end

if.then:                                          ; preds = %entry
  store i32 0, ptr %retval, align 4
  br label %return

if.end:                                           ; preds = %entry
  %m_data2 = getelementptr inbounds %class.vector.12, ptr %this1, i32 0, i32 0
  %1 = load ptr, ptr %m_data2, align 8
  %arrayidx = getelementptr inbounds i32, ptr %1, i64 -1
  %2 = load i32, ptr %arrayidx, align 4
  store i32 %2, ptr %retval, align 4
  br label %return

return:                                           ; preds = %if.end, %if.then
  %3 = load i32, ptr %retval, align 4
  ret i32 %3
}

; Function Attrs: mustprogress uwtable
define hidden void @_ZN3sat4prob21init_near_best_valuesEv(ptr noundef nonnull align 8 dereferenceable(816) %this) #7 align 2 {
entry:
  %this.addr = alloca ptr, align 8
  %v = alloca i32, align 4
  store ptr %this, ptr %this.addr, align 8
  %this1 = load ptr, ptr %this.addr, align 8
  store i32 0, ptr %v, align 4
  br label %for.cond

for.cond:                                         ; preds = %for.inc, %entry
  %0 = load i32, ptr %v, align 4
  %m_values = getelementptr inbounds %"class.sat::prob", ptr %this1, i32 0, i32 6
  %call = call noundef i32 @_ZNK6vectorIbLb0EjE4sizeEv(ptr noundef nonnull align 8 dereferenceable(8) %m_values)
  %cmp = icmp ult i32 %0, %call
  br i1 %cmp, label %for.body, label %for.end

for.body:                                         ; preds = %for.cond
  %m_rand = getelementptr inbounds %"class.sat::prob", ptr %this1, i32 0, i32 15
  %call2 = call noundef i32 @_ZN10random_genclEj(ptr noundef nonnull align 4 dereferenceable(4) %m_rand, i32 noundef 100)
  %m_config = getelementptr inbounds %"class.sat::prob", ptr %this1, i32 0, i32 1
  %m_prob_random_init = getelementptr inbounds %"struct.sat::prob::config", ptr %m_config, i32 0, i32 0
  %1 = load i32, ptr %m_prob_random_init, align 8
  %cmp3 = icmp ult i32 %call2, %1
  br i1 %cmp3, label %if.then, label %if.else

if.then:                                          ; preds = %for.body
  %m_best_values = getelementptr inbounds %"class.sat::prob", ptr %this1, i32 0, i32 7
  %2 = load i32, ptr %v, align 4
  %call4 = call noundef nonnull align 1 dereferenceable(1) ptr @_ZN6vectorIbLb0EjEixEj(ptr noundef nonnull align 8 dereferenceable(8) %m_best_values, i32 noundef %2)
  %3 = load i8, ptr %call4, align 1
  %tobool = trunc i8 %3 to i1
  %lnot = xor i1 %tobool, true
  %m_values5 = getelementptr inbounds %"class.sat::prob", ptr %this1, i32 0, i32 6
  %4 = load i32, ptr %v, align 4
  %call6 = call noundef nonnull align 1 dereferenceable(1) ptr @_ZN6vectorIbLb0EjEixEj(ptr noundef nonnull align 8 dereferenceable(8) %m_values5, i32 noundef %4)
  %frombool = zext i1 %lnot to i8
  store i8 %frombool, ptr %call6, align 1
  br label %if.end

if.else:                                          ; preds = %for.body
  %m_best_values7 = getelementptr inbounds %"class.sat::prob", ptr %this1, i32 0, i32 7
  %5 = load i32, ptr %v, align 4
  %call8 = call noundef nonnull align 1 dereferenceable(1) ptr @_ZN6vectorIbLb0EjEixEj(ptr noundef nonnull align 8 dereferenceable(8) %m_best_values7, i32 noundef %5)
  %6 = load i8, ptr %call8, align 1
  %tobool9 = trunc i8 %6 to i1
  %m_values10 = getelementptr inbounds %"class.sat::prob", ptr %this1, i32 0, i32 6
  %7 = load i32, ptr %v, align 4
  %call11 = call noundef nonnull align 1 dereferenceable(1) ptr @_ZN6vectorIbLb0EjEixEj(ptr noundef nonnull align 8 dereferenceable(8) %m_values10, i32 noundef %7)
  %frombool12 = zext i1 %tobool9 to i8
  store i8 %frombool12, ptr %call11, align 1
  br label %if.end

if.end:                                           ; preds = %if.else, %if.then
  br label %for.inc

for.inc:                                          ; preds = %if.end
  %8 = load i32, ptr %v, align 4
  %inc = add i32 %8, 1
  store i32 %inc, ptr %v, align 4
  br label %for.cond, !llvm.loop !15

for.end:                                          ; preds = %for.cond
  ret void
}

; Function Attrs: mustprogress uwtable
define hidden void @_ZN3sat4prob13reinit_valuesEv(ptr noundef nonnull align 8 dereferenceable(816) %this) #7 align 2 {
entry:
  %this.addr = alloca ptr, align 8
  store ptr %this, ptr %this.addr, align 8
  %this1 = load ptr, ptr %this.addr, align 8
  call void @_ZN3sat4prob21init_near_best_valuesEv(ptr noundef nonnull align 8 dereferenceable(816) %this1)
  ret void
}

; Function Attrs: mustprogress uwtable
define hidden void @_ZN3sat4prob10do_restartEv(ptr noundef nonnull align 8 dereferenceable(816) %this) #7 align 2 {
entry:
  %this.addr = alloca ptr, align 8
  store ptr %this, ptr %this.addr, align 8
  %this1 = load ptr, ptr %this.addr, align 8
  call void @_ZN3sat4prob13reinit_valuesEv(ptr noundef nonnull align 8 dereferenceable(816) %this1)
  call void @_ZN3sat4prob12init_clausesEv(ptr noundef nonnull align 8 dereferenceable(816) %this1)
  %m_config = getelementptr inbounds %"class.sat::prob", ptr %this1, i32 0, i32 1
  %m_restart_offset = getelementptr inbounds %"struct.sat::prob::config", ptr %m_config, i32 0, i32 1
  %0 = load i32, ptr %m_restart_offset, align 4
  %m_restart_count = getelementptr inbounds %"class.sat::prob", ptr %this1, i32 0, i32 19
  %1 = load i32, ptr %m_restart_count, align 8
  %inc = add i32 %1, 1
  store i32 %inc, ptr %m_restart_count, align 8
  %call = call noundef i32 @_Z8get_lubyj(i32 noundef %1)
  %mul = mul i32 %0, %call
  %conv = zext i32 %mul to i64
  %m_next_restart = getelementptr inbounds %"class.sat::prob", ptr %this1, i32 0, i32 18
  %2 = load i64, ptr %m_next_restart, align 8
  %add = add i64 %2, %conv
  store i64 %add, ptr %m_next_restart, align 8
  call void @_ZN3sat4prob3logEv(ptr noundef nonnull align 8 dereferenceable(816) %this1)
  ret void
}

; Function Attrs: mustprogress nounwind uwtable
define hidden noundef zeroext i1 @_ZN3sat4prob14should_restartEv(ptr noundef nonnull align 8 dereferenceable(816) %this) #4 align 2 {
entry:
  %this.addr = alloca ptr, align 8
  store ptr %this, ptr %this.addr, align 8
  %this1 = load ptr, ptr %this.addr, align 8
  %m_flips = getelementptr inbounds %"class.sat::prob", ptr %this1, i32 0, i32 17
  %0 = load i64, ptr %m_flips, align 8
  %m_next_restart = getelementptr inbounds %"class.sat::prob", ptr %this1, i32 0, i32 18
  %1 = load i64, ptr %m_next_restart, align 8
  %cmp = icmp uge i64 %0, %1
  ret i1 %cmp
}

; Function Attrs: mustprogress uwtable
define hidden noundef i32 @_ZN3sat4prob5checkEjPKNS_7literalEPNS_8parallelE(ptr noundef nonnull align 8 dereferenceable(816) %this, i32 noundef %n, ptr noundef %assumptions, ptr noundef %p) unnamed_addr #7 align 2 {
entry:
  %retval = alloca i32, align 4
  %this.addr = alloca ptr, align 8
  %n.addr = alloca i32, align 4
  %assumptions.addr = alloca ptr, align 8
  %p.addr = alloca ptr, align 8
  store ptr %this, ptr %this.addr, align 8
  store i32 %n, ptr %n.addr, align 4
  store ptr %assumptions, ptr %assumptions.addr, align 8
  store ptr %p, ptr %p.addr, align 8
  %this1 = load ptr, ptr %this.addr, align 8
  %0 = load i32, ptr %n.addr, align 4
  %cmp = icmp eq i32 %0, 0
  br i1 %cmp, label %if.end, label %if.then

if.then:                                          ; preds = %entry
  call void @_Z26notify_assertion_violationPKciS0_(ptr noundef @.str, i32 noundef 33, ptr noundef @.str.2)
  call void @exit(i32 noundef 114) #14
  unreachable

if.end:                                           ; preds = %entry
  call void @_ZN3sat4prob4initEv(ptr noundef nonnull align 8 dereferenceable(816) %this1)
  br label %while.cond

while.cond:                                       ; preds = %if.end5, %if.end
  %m_limit = getelementptr inbounds %"class.sat::prob", ptr %this1, i32 0, i32 2
  %call = call noundef zeroext i1 @_ZN8reslimit3incEv(ptr noundef nonnull align 8 dereferenceable(40) %m_limit)
  br i1 %call, label %land.rhs, label %land.end

land.rhs:                                         ; preds = %while.cond
  %m_best_min_unsat = getelementptr inbounds %"class.sat::prob", ptr %this1, i32 0, i32 8
  %1 = load i32, ptr %m_best_min_unsat, align 8
  %cmp2 = icmp ugt i32 %1, 0
  br label %land.end

land.end:                                         ; preds = %land.rhs, %while.cond
  %2 = phi i1 [ false, %while.cond ], [ %cmp2, %land.rhs ]
  br i1 %2, label %while.body, label %while.end

while.body:                                       ; preds = %land.end
  %call3 = call noundef zeroext i1 @_ZN3sat4prob14should_restartEv(ptr noundef nonnull align 8 dereferenceable(816) %this1)
  br i1 %call3, label %if.then4, label %if.else

if.then4:                                         ; preds = %while.body
  call void @_ZN3sat4prob10do_restartEv(ptr noundef nonnull align 8 dereferenceable(816) %this1)
  br label %if.end5

if.else:                                          ; preds = %while.body
  call void @_ZN3sat4prob4flipEv(ptr noundef nonnull align 8 dereferenceable(816) %this1)
  br label %if.end5

if.end5:                                          ; preds = %if.else, %if.then4
  br label %while.cond, !llvm.loop !4

while.end:                                        ; preds = %land.end
  %m_best_min_unsat6 = getelementptr inbounds %"class.sat::prob", ptr %this1, i32 0, i32 8
  %3 = load i32, ptr %m_best_min_unsat6, align 8
  %cmp7 = icmp eq i32 %3, 0
  br i1 %cmp7, label %if.then8, label %if.end9

if.then8:                                         ; preds = %while.end
  store i32 1, ptr %retval, align 4
  br label %return

if.end9:                                          ; preds = %while.end
  store i32 0, ptr %retval, align 4
  br label %return

return:                                           ; preds = %if.end9, %if.then8
  %4 = load i32, ptr %retval, align 4
  ret i32 %4
}