; Function Attrs: mustprogress uwtable
define hidden noundef i32 @_ZN3sat4prob5checkEjPKNS_7literalEPNS_8parallelE(ptr noundef nonnull align 8 dereferenceable(816) %this, i32 noundef %n, ptr nocapture readnone %assumptions, ptr nocapture readnone %p) unnamed_addr #6 align 2 {
entry:
  %cmp = icmp eq i32 %n, 0
  br i1 %cmp, label %if.end, label %if.then

if.then:                                          ; preds = %entry
  tail call void @_Z26notify_assertion_violationPKciS0_(ptr noundef nonnull @.str, i32 noundef 33, ptr noundef nonnull @.str.2)
  tail call void @exit(i32 noundef 114) #18
  unreachable

if.end:                                           ; preds = %entry
  tail call void @_ZN3sat4prob4initEv(ptr noundef nonnull align 8 dereferenceable(816) %this)
  %m_limit = getelementptr inbounds i8, ptr %this, i64 32
  %call2 = tail call noundef zeroext i1 @_ZN8reslimit3incEv(ptr noundef nonnull align 8 dereferenceable(40) %m_limit)
  %m_best_min_unsat = getelementptr inbounds i8, ptr %this, i64 672
  %0 = load i32, ptr %m_best_min_unsat, align 8
  %cmp2.not3 = icmp ne i32 %0, 0
  %or.cond.not4 = select i1 %call2, i1 %cmp2.not3, i1 false
  br i1 %or.cond.not4, label %while.body.lr.ph, label %while.end

while.body.lr.ph:                                 ; preds = %if.end
  %m_flips.i = getelementptr inbounds i8, ptr %this, i64 760
  %m_next_restart.i = getelementptr inbounds i8, ptr %this, i64 768
  %m_values.i.i.i = getelementptr inbounds i8, ptr %this, i64 656
  %m_rand.i.i.i = getelementptr inbounds i8, ptr %this, i64 744
  %m_config.i.i.i = getelementptr inbounds i8, ptr %this, i64 8
  %m_best_values7.i.i.i = getelementptr inbounds i8, ptr %this, i64 664
  %m_restart_offset.i = getelementptr inbounds i8, ptr %this, i64 12
  %m_restart_count.i = getelementptr inbounds i8, ptr %this, i64 776
  br label %while.body

while.body:                                       ; preds = %while.body.lr.ph, %if.end5
  %1 = load i64, ptr %m_flips.i, align 8
  %2 = load i64, ptr %m_next_restart.i, align 8
  %cmp.i.not = icmp ult i64 %1, %2
  br i1 %cmp.i.not, label %if.else, label %for.cond.i.i.i

for.cond.i.i.i:                                   ; preds = %while.body, %for.body.i.i.i
  %indvars.iv.i.i.i = phi i64 [ %indvars.iv.next.i.i.i, %for.body.i.i.i ], [ 0, %while.body ]
  %3 = load ptr, ptr %m_values.i.i.i, align 8
  %cmp.i.i.i.i = icmp eq ptr %3, null
  br i1 %cmp.i.i.i.i, label %_ZNK6vectorIbLb0EjE4sizeEv.exit.i.i.i, label %if.end.i.i.i.i

if.end.i.i.i.i:                                   ; preds = %for.cond.i.i.i
  %arrayidx.i.i.i.i = getelementptr inbounds i8, ptr %3, i64 -4
  %4 = load i32, ptr %arrayidx.i.i.i.i, align 4
  br label %_ZNK6vectorIbLb0EjE4sizeEv.exit.i.i.i

_ZNK6vectorIbLb0EjE4sizeEv.exit.i.i.i:            ; preds = %if.end.i.i.i.i, %for.cond.i.i.i
  %retval.0.i.i.i.i = phi i32 [ %4, %if.end.i.i.i.i ], [ 0, %for.cond.i.i.i ]
  %5 = zext i32 %retval.0.i.i.i.i to i64
  %cmp.i.i.i = icmp ult i64 %indvars.iv.i.i.i, %5
  br i1 %cmp.i.i.i, label %for.body.i.i.i, label %_ZN3sat4prob10do_restartEv.exit

for.body.i.i.i:                                   ; preds = %_ZNK6vectorIbLb0EjE4sizeEv.exit.i.i.i
  %6 = load i32, ptr %m_rand.i.i.i, align 8
  %mul.i.i.i.i.i = mul i32 %6, 214013
  %add.i.i.i.i.i = add i32 %mul.i.i.i.i.i, 2531011
  store i32 %add.i.i.i.i.i, ptr %m_rand.i.i.i, align 8
  %shr.i.i.i.i.i = lshr i32 %add.i.i.i.i.i, 16
  %7 = trunc i32 %shr.i.i.i.i.i to i16
  %rem.i.lhs.trunc.i.i.i = and i16 %7, 32767
  %rem.i13.i.i.i = urem i16 %rem.i.lhs.trunc.i.i.i, 100
  %rem.i.zext.i.i.i = zext nneg i16 %rem.i13.i.i.i to i32
  %8 = load i32, ptr %m_config.i.i.i, align 8
  %cmp3.i.i.i = icmp ugt i32 %8, %rem.i.zext.i.i.i
  %9 = load ptr, ptr %m_best_values7.i.i.i, align 8
  %arrayidx.i6.i.i.i = getelementptr inbounds i8, ptr %9, i64 %indvars.iv.i.i.i
  %10 = load i8, ptr %arrayidx.i6.i.i.i, align 1
  %11 = and i8 %10, 1
  %frombool.i.i.i = zext i1 %cmp3.i.i.i to i8
  %.sink.i.i.i = xor i8 %11, %frombool.i.i.i
  %12 = getelementptr inbounds i8, ptr %3, i64 %indvars.iv.i.i.i
  store i8 %.sink.i.i.i, ptr %12, align 1
  %indvars.iv.next.i.i.i = add nuw nsw i64 %indvars.iv.i.i.i, 1
  br label %for.cond.i.i.i, !llvm.loop !6

_ZN3sat4prob10do_restartEv.exit:                  ; preds = %_ZNK6vectorIbLb0EjE4sizeEv.exit.i.i.i
  tail call void @_ZN3sat4prob12init_clausesEv(ptr noundef nonnull align 8 dereferenceable(816) %this)
  %13 = load i32, ptr %m_restart_offset.i, align 4
  %14 = load i32, ptr %m_restart_count.i, align 8
  %inc.i = add i32 %14, 1
  store i32 %inc.i, ptr %m_restart_count.i, align 8
  %call.i = tail call noundef i32 @_Z8get_lubyj(i32 noundef %14)
  %mul.i = mul i32 %call.i, %13
  %conv.i = zext i32 %mul.i to i64
  %15 = load i64, ptr %m_next_restart.i, align 8
  %add.i = add i64 %15, %conv.i
  store i64 %add.i, ptr %m_next_restart.i, align 8
  tail call void @_ZN3sat4prob3logEv(ptr noundef nonnull align 8 dereferenceable(816) %this)
  br label %if.end5

if.else:                                          ; preds = %while.body
  tail call void @_ZN3sat4prob4flipEv(ptr noundef nonnull align 8 dereferenceable(816) %this)
  br label %if.end5

if.end5:                                          ; preds = %if.else, %_ZN3sat4prob10do_restartEv.exit
  %call = tail call noundef zeroext i1 @_ZN8reslimit3incEv(ptr noundef nonnull align 8 dereferenceable(40) %m_limit)
  %16 = load i32, ptr %m_best_min_unsat, align 8
  %cmp2.not = icmp ne i32 %16, 0
  %or.cond.not = select i1 %call, i1 %cmp2.not, i1 false
  br i1 %or.cond.not, label %while.body, label %while.end, !llvm.loop !7

while.end:                                        ; preds = %if.end5, %if.end
  %cmp2.not.lcssa = phi i1 [ %cmp2.not3, %if.end ], [ %cmp2.not, %if.end5 ]
  %not.cmp2.not = xor i1 %cmp2.not.lcssa, true
  %. = zext i1 %not.cmp2.not to i32
  ret i32 %.
}